target datalayout = "e-m:e-p270:32:32-p271:32:32-p272:64:64-i64:64-i128:128-f80:128-n8:16:32:64-S128"
target triple = "x86_64-pc-linux-gnu"

%"class.OpenImageIO::v3_1_0::span.0" = type { ptr, i64 }
%"class.OpenImageIO::v3_1_0::span.1" = type { ptr, i64 }
%"class.OpenImageIO::v3_1_0::span" = type { ptr, i64 }
%"class.OpenImageIO::v3_1_0::ImageBuf" = type { %"class.std::unique_ptr" }
%"class.std::unique_ptr" = type { %"struct.std::__uniq_ptr_data" }
%"struct.std::__uniq_ptr_data" = type { %"class.std::__uniq_ptr_impl" }
%"class.std::__uniq_ptr_impl" = type { %"class.std::tuple" }
%"class.std::tuple" = type { %"struct.std::_Tuple_impl" }
%"struct.std::_Tuple_impl" = type { %"struct.std::_Tuple_impl.2", %"struct.std::_Head_base.3" }
%"struct.std::_Tuple_impl.2" = type { %"struct.std::_Head_base" }
%"struct.std::_Head_base" = type { ptr }
%"struct.std::_Head_base.3" = type { ptr }

@.str.7 = private unnamed_addr constant [31 x i8] c"ImageBufAlgo::channels() error\00", align 1

; Function Attrs: mustprogress uwtable
define void @_ZN11OpenImageIO6v3_1_012ImageBufAlgo8channelsERKNS0_8ImageBufEiNS0_4spanIKiLm18446744073709551615EEENS5_IKfLm18446744073709551615EEENS5_IKNSt7__cxx1112basic_stringIcSt11char_traitsIcESaIcEEELm18446744073709551615EEEbi(ptr dead_on_unwind noalias writable sret(%"class.OpenImageIO::v3_1_0::ImageBuf") align 8 %0, ptr noundef nonnull align 8 dereferenceable(16) %1, i32 noundef %2, ptr %3, i64 %4, ptr noundef byval(%"class.OpenImageIO::v3_1_0::span.0") align 8 %5, ptr noundef byval(%"class.OpenImageIO::v3_1_0::span.1") align 8 %6, i1 noundef zeroext %7, i32 noundef %8) #6 personality ptr @__gxx_personality_v0 {
  %10 = alloca ptr, align 8
  %11 = alloca %"class.OpenImageIO::v3_1_0::span", align 8
  %12 = alloca ptr, align 8
  %13 = alloca i32, align 4
  %14 = alloca i8, align 1
  %15 = alloca i32, align 4
  %16 = alloca i1, align 1
  %17 = alloca i8, align 1
  %18 = alloca %"class.OpenImageIO::v3_1_0::span", align 8
  %19 = alloca %"class.OpenImageIO::v3_1_0::span.0", align 8
  %20 = alloca %"class.OpenImageIO::v3_1_0::span.1", align 8
  %21 = alloca ptr, align 8
  %22 = alloca i32, align 4
  store ptr %0, ptr %10, align 8
  %23 = getelementptr inbounds nuw { ptr, i64 }, ptr %11, i32 0, i32 0
  store ptr %3, ptr %23, align 8
  %24 = getelementptr inbounds nuw { ptr, i64 }, ptr %11, i32 0, i32 1
  store i64 %4, ptr %24, align 8
  store ptr %1, ptr %12, align 8, !tbaa !8
  store i32 %2, ptr %13, align 4, !tbaa !10
  %25 = zext i1 %7 to i8
  store i8 %25, ptr %14, align 1, !tbaa !12
  store i32 %8, ptr %15, align 4, !tbaa !10
  store i1 false, ptr %16, align 1
  call void @_ZN11OpenImageIO6v3_1_08ImageBufC1Ev(ptr noundef nonnull align 8 dereferenceable(16) %0)
  call void @llvm.lifetime.start.p0(i64 1, ptr %17) #3
  %26 = load ptr, ptr %12, align 8, !tbaa !8
  %27 = load i32, ptr %13, align 4, !tbaa !10
  call void @llvm.memcpy.p0.p0.i64(ptr align 8 %18, ptr align 8 %11, i64 16, i1 false), !tbaa.struct !14
  call void @llvm.memcpy.p0.p0.i64(ptr align 8 %19, ptr align 8 %5, i64 16, i1 false), !tbaa.struct !19
  call void @llvm.memcpy.p0.p0.i64(ptr align 8 %20, ptr align 8 %6, i64 16, i1 false), !tbaa.struct !22
  %28 = load i8, ptr %14, align 1, !tbaa !12, !range !25, !noundef !26
  %29 = trunc i8 %28 to i1
  %30 = load i32, ptr %15, align 4, !tbaa !10
  %31 = getelementptr inbounds nuw { ptr, i64 }, ptr %18, i32 0, i32 0
  %32 = load ptr, ptr %31, align 8
  %33 = getelementptr inbounds nuw { ptr, i64 }, ptr %18, i32 0, i32 1
  %34 = load i64, ptr %33, align 8
  %35 = invoke noundef zeroext i1 @_ZN11OpenImageIO6v3_1_012ImageBufAlgo8channelsERNS0_8ImageBufERKS2_iNS0_4spanIKiLm18446744073709551615EEENS6_IKfLm18446744073709551615EEENS6_IKNSt7__cxx1112basic_stringIcSt11char_traitsIcESaIcEEELm18446744073709551615EEEbi(ptr noundef nonnull align 8 dereferenceable(16) %0, ptr noundef nonnull align 8 dereferenceable(16) %26, i32 noundef %27, ptr %32, i64 %34, ptr noundef byval(%"class.OpenImageIO::v3_1_0::span.0") align 8 %19, ptr noundef byval(%"class.OpenImageIO::v3_1_0::span.1") align 8 %20, i1 noundef zeroext %29, i32 noundef %30)
          to label %36 unwind label %45

36:                                               ; preds = %9
  %37 = zext i1 %35 to i8
  store i8 %37, ptr %17, align 1, !tbaa !12
  %38 = load i8, ptr %17, align 1, !tbaa !12, !range !25, !noundef !26
  %39 = trunc i8 %38 to i1
  br i1 %39, label %49, label %40

40:                                               ; preds = %36
  %41 = invoke noundef zeroext i1 @_ZNK11OpenImageIO6v3_1_08ImageBuf9has_errorEv(ptr noundef nonnull align 8 dereferenceable(16) %0)
          to label %42 unwind label %45

42:                                               ; preds = %40
  br i1 %41, label %49, label %43

43:                                               ; preds = %42
  invoke void @_ZNK11OpenImageIO6v3_1_08ImageBuf8errorfmtIA31_cJEEEvRKT_DpOT0_(ptr noundef nonnull align 8 dereferenceable(16) %0, ptr noundef nonnull align 1 dereferenceable(31) @.str.7)
          to label %44 unwind label %45

44:                                               ; preds = %43
  br label %49

45:                                               ; preds = %43, %40, %9
  %46 = landingpad { ptr, i32 }
          cleanup
  %47 = extractvalue { ptr, i32 } %46, 0
  store ptr %47, ptr %21, align 8
  %48 = extractvalue { ptr, i32 } %46, 1
  store i32 %48, ptr %22, align 4
  call void @llvm.lifetime.end.p0(i64 1, ptr %17) #3
  call void @_ZN11OpenImageIO6v3_1_08ImageBufD1Ev(ptr noundef nonnull align 8 dereferenceable(16) %0) #3
  br label %53

49:                                               ; preds = %44, %42, %36
  store i1 true, ptr %16, align 1
  call void @llvm.lifetime.end.p0(i64 1, ptr %17) #3
  %50 = load i1, ptr %16, align 1
  br i1 %50, label %52, label %51

51:                                               ; preds = %49
  call void @_ZN11OpenImageIO6v3_1_08ImageBufD1Ev(ptr noundef nonnull align 8 dereferenceable(16) %0) #3
  br label %52

52:                                               ; preds = %51, %49
  ret void

53:                                               ; preds = %45
  %54 = load ptr, ptr %21, align 8
  %55 = load i32, ptr %22, align 4
  %56 = insertvalue { ptr, i32 } poison, ptr %54, 0
  %57 = insertvalue { ptr, i32 } %56, i32 %55, 1
  resume { ptr, i32 } %57
}