; Function Attrs: mustprogress uwtable
define void @_ZN11OpenImageIO6v3_1_012ImageBufAlgo8channelsERKNS0_8ImageBufEiNS0_4spanIKiLm18446744073709551615EEENS5_IKfLm18446744073709551615EEENS5_IKNSt7__cxx1112basic_stringIcSt11char_traitsIcESaIcEEELm18446744073709551615EEEbi(ptr dead_on_unwind noalias nonnull writable sret(%"class.OpenImageIO::v3_1_0::ImageBuf") align 8 %0, ptr noundef nonnull align 8 dereferenceable(16) %1, i32 noundef %2, ptr %3, i64 %4, ptr noundef readonly byval(%"class.OpenImageIO::v3_1_0::span.0") align 8 captures(none) %5, ptr noundef readonly byval(%"class.OpenImageIO::v3_1_0::span.1") align 8 captures(none) %6, i1 noundef zeroext %7, i32 noundef %8) local_unnamed_addr #5 personality ptr @__gxx_personality_v0 {
  tail call void @_ZN11OpenImageIO6v3_1_08ImageBufC1Ev(ptr noundef nonnull align 8 dereferenceable(16) %0)
  %10 = invoke noundef zeroext i1 @_ZN11OpenImageIO6v3_1_012ImageBufAlgo8channelsERNS0_8ImageBufERKS2_iNS0_4spanIKiLm18446744073709551615EEENS6_IKfLm18446744073709551615EEENS6_IKNSt7__cxx1112basic_stringIcSt11char_traitsIcESaIcEEELm18446744073709551615EEEbi(ptr noundef nonnull align 8 dereferenceable(16) %0, ptr noundef nonnull align 8 dereferenceable(16) %1, i32 noundef %2, ptr %3, i64 %4, ptr noundef nonnull byval(%"class.OpenImageIO::v3_1_0::span.0") align 8 %5, ptr noundef nonnull byval(%"class.OpenImageIO::v3_1_0::span.1") align 8 %6, i1 noundef zeroext %7, i32 noundef %8)
          to label %11 unwind label %16

11:                                               ; preds = %9
  br i1 %10, label %18, label %12

12:                                               ; preds = %11
  %13 = invoke noundef zeroext i1 @_ZNK11OpenImageIO6v3_1_08ImageBuf9has_errorEv(ptr noundef nonnull align 8 dereferenceable(16) %0)
          to label %14 unwind label %16

14:                                               ; preds = %12
  br i1 %13, label %18, label %15

15:                                               ; preds = %14
  invoke void @_ZNK11OpenImageIO6v3_1_08ImageBuf8errorfmtIA31_cJEEEvRKT_DpOT0_(ptr noundef nonnull align 8 dereferenceable(16) %0, ptr noundef nonnull align 1 dereferenceable(31) @.str.7)
          to label %18 unwind label %16

16:                                               ; preds = %15, %12, %9
  %17 = landingpad { ptr, i32 }
          cleanup
  tail call void @_ZN11OpenImageIO6v3_1_08ImageBufD1Ev(ptr noundef nonnull align 8 dereferenceable(16) %0) #26
  resume { ptr, i32 } %17

18:                                               ; preds = %11, %14, %15
  ret void
}